target datalayout = "e-m:e-p270:32:32-p271:32:32-p272:64:64-i64:64-i128:128-f80:128-n8:16:32:64-S128"
target triple = "x86_64-pc-linux-gnu"

%struct.ParseContext_ = type { %struct.TokenData, i32, %union.SourceSpan, %union.SourceSpan, ptr, %struct.Lexer }
%struct.TokenData = type { ptr, i64, %union.anon.86 }
%union.anon.86 = type { %struct.anon.89 }
%struct.anon.89 = type { %struct.Int128_, i8 }
%struct.Int128_ = type { i64, i64 }
%union.SourceSpan = type { i64 }
%struct.Lexer = type { ptr, ptr, ptr, ptr, i32, i32, ptr, ptr, ptr, %struct.TokenData, %union.SourceSpan, i32, i32 }
%struct.Decl_ = type { ptr, ptr, %union.SourceSpan, i64, %union.anon, i32, %union.anon.1, i64, ptr, ptr, ptr, %union.anon.2 }
%union.anon = type { ptr }
%union.anon.1 = type { i16 }
%union.anon.2 = type { %struct.FuncDecl }
%struct.FuncDecl = type { i32, [4 x i8], %struct.Signature_, i32, i32, %union.anon.9 }
%struct.Signature_ = type <{ %struct.CalleeAttributes, i16, i8, i32, i32, [4 x i8], ptr }>
%struct.CalleeAttributes = type { i8 }
%union.anon.9 = type { %struct.anon.10 }
%struct.anon.10 = type { i16, %union.anon.11 }
%union.anon.11 = type { ptr }
%struct.anon.3 = type { ptr, ptr, %union.anon.4 }
%union.anon.4 = type { %struct.BitStructDecl }
%struct.BitStructDecl = type { ptr, ptr, i8 }

@poisoned_decl = external global ptr, align 8
@.str.79 = private unnamed_addr constant [50 x i8] c"Names of %ss must start with an uppercase letter.\00", align 1
@.str.80 = private unnamed_addr constant [38 x i8] c"Names of %ss cannot be all uppercase.\00", align 1
@.str.81 = private unnamed_addr constant [47 x i8] c"'%s' should be followed by the name of the %s.\00", align 1
@.str.85 = private unnamed_addr constant [36 x i8] c"FATAL ERROR %s -> in %s @ in %s:%d \00", align 1
@.str.86 = private unnamed_addr constant [22 x i8] c"Should be unreachable\00", align 1
@__func__.decl_from_token = private unnamed_addr constant [16 x i8] c"decl_from_token\00", align 1
@.str.87 = private unnamed_addr constant [118 x i8] c"generated/home/dtcxzyw/WorkSpace/Projects/compilers/llvm-opt-benchmark/bench/c3c/c3c/src/compiler/compiler_internal.h\00", align 1
@.str.141 = private unnamed_addr constant [7 x i8] c"struct\00", align 1
@.str.142 = private unnamed_addr constant [6 x i8] c"union\00", align 1

; Function Attrs: nounwind uwtable
define internal zeroext i1 @consume_type_name(ptr noundef %0, ptr noundef %1) #0 {
  %3 = alloca i32, align 4
  %4 = alloca ptr, align 8
  %5 = alloca i32, align 4
  %6 = alloca ptr, align 8
  %7 = alloca i32, align 4
  %8 = alloca i1, align 1
  %9 = alloca ptr, align 8
  %10 = alloca ptr, align 8
  store ptr %0, ptr %9, align 8
  store ptr %1, ptr %10, align 8
  %11 = load ptr, ptr %9, align 8
  store ptr %11, ptr %4, align 8
  store i32 64, ptr %5, align 4
  %12 = load ptr, ptr %4, align 8
  %13 = getelementptr inbounds %struct.ParseContext_, ptr %12, i32 0, i32 1
  %14 = load i32, ptr %13, align 8
  %15 = load i32, ptr %5, align 4
  %16 = icmp eq i32 %14, %15
  br i1 %16, label %28, label %17

17:                                               ; preds = %2
  %18 = load ptr, ptr %9, align 8
  %19 = getelementptr inbounds %struct.ParseContext_, ptr %18, i32 0, i32 1
  %20 = load i32, ptr %19, align 8
  store i32 %20, ptr %3, align 4
  %21 = load i32, ptr %3, align 4
  %22 = icmp uge i32 %21, 82
  br i1 %22, label %23, label %26

23:                                               ; preds = %17
  %24 = load i32, ptr %3, align 4
  %25 = icmp ule i32 %24, 144
  br label %26

26:                                               ; preds = %23, %17
  %27 = phi i1 [ false, %17 ], [ %25, %23 ]
  br i1 %27, label %28, label %36

28:                                               ; preds = %26, %2
  br label %29

29:                                               ; preds = %28
  %30 = load ptr, ptr %9, align 8
  %31 = getelementptr inbounds %struct.ParseContext_, ptr %30, i32 0, i32 2
  %32 = load ptr, ptr %10, align 8
  %33 = getelementptr inbounds %union.SourceSpan, ptr %31, i32 0, i32 0
  %34 = load i64, ptr %33, align 8
  call void (i64, ptr, ...) @sema_error_at(i64 %34, ptr noundef @.str.79, ptr noundef %32)
  store i1 false, ptr %8, align 1
  br label %56

35:                                               ; No predecessors!
  br label %36

36:                                               ; preds = %35, %26
  %37 = load ptr, ptr %9, align 8
  store ptr %37, ptr %6, align 8
  store i32 65, ptr %7, align 4
  %38 = load ptr, ptr %6, align 8
  %39 = getelementptr inbounds %struct.ParseContext_, ptr %38, i32 0, i32 1
  %40 = load i32, ptr %39, align 8
  %41 = load i32, ptr %7, align 4
  %42 = icmp eq i32 %40, %41
  br i1 %42, label %43, label %51

43:                                               ; preds = %36
  br label %44

44:                                               ; preds = %43
  %45 = load ptr, ptr %9, align 8
  %46 = getelementptr inbounds %struct.ParseContext_, ptr %45, i32 0, i32 2
  %47 = load ptr, ptr %10, align 8
  %48 = getelementptr inbounds %union.SourceSpan, ptr %46, i32 0, i32 0
  %49 = load i64, ptr %48, align 8
  call void (i64, ptr, ...) @sema_error_at(i64 %49, ptr noundef @.str.80, ptr noundef %47)
  store i1 false, ptr %8, align 1
  br label %56

50:                                               ; No predecessors!
  br label %51

51:                                               ; preds = %50, %36
  %52 = load ptr, ptr %9, align 8
  %53 = load ptr, ptr %10, align 8
  %54 = load ptr, ptr %10, align 8
  %55 = call zeroext i1 (ptr, i32, ptr, ...) @consume(ptr noundef %52, i32 noundef 66, ptr noundef @.str.81, ptr noundef %53, ptr noundef %54)
  store i1 %55, ptr %8, align 1
  br label %56

56:                                               ; preds = %51, %44, %29
  %57 = load i1, ptr %8, align 1
  ret i1 %57
}

; Function Attrs: nounwind uwtable
define internal i32 @decl_from_token(i32 noundef %0) #0 {
  %2 = alloca i32, align 4
  %3 = alloca i32, align 4
  store i32 %0, ptr %3, align 4
  %4 = load i32, ptr %3, align 4
  %5 = icmp eq i32 %4, 138
  br i1 %5, label %6, label %7

6:                                                ; preds = %1
  store i32 23, ptr %2, align 4
  br label %17

7:                                                ; preds = %1
  %8 = load i32, ptr %3, align 4
  %9 = icmp eq i32 %8, 142
  br i1 %9, label %10, label %11

10:                                               ; preds = %7
  store i32 25, ptr %2, align 4
  br label %17

11:                                               ; preds = %7
  %12 = load i32, ptr %3, align 4
  %13 = icmp eq i32 %12, 107
  br i1 %13, label %14, label %15

14:                                               ; preds = %11
  store i32 2, ptr %2, align 4
  br label %17

15:                                               ; preds = %11
  br label %16

16:                                               ; preds = %15
  call void (ptr, ...) @error_exit(ptr noundef @.str.85, ptr noundef @.str.86, ptr noundef @__func__.decl_from_token, ptr noundef @.str.87, i32 noundef 3165) #7
  unreachable

17:                                               ; preds = %14, %10, %6
  %18 = load i32, ptr %2, align 4
  ret i32 %18
}

; Function Attrs: nounwind uwtable
define internal ptr @parse_struct_declaration(ptr noundef %0) #0 {
  %2 = alloca ptr, align 8
  %3 = alloca ptr, align 8
  %4 = alloca ptr, align 8
  %5 = alloca i32, align 4
  %6 = alloca ptr, align 8
  %7 = alloca ptr, align 8
  store ptr %0, ptr %4, align 8
  %8 = load ptr, ptr %4, align 8
  %9 = getelementptr inbounds %struct.ParseContext_, ptr %8, i32 0, i32 1
  %10 = load i32, ptr %9, align 8
  store i32 %10, ptr %5, align 4
  %11 = load ptr, ptr %4, align 8
  call void @advance(ptr noundef %11)
  %12 = load i32, ptr %5, align 4
  %13 = icmp eq i32 %12, 138
  %14 = select i1 %13, ptr @.str.141, ptr @.str.142
  store ptr %14, ptr %6, align 8
  %15 = load ptr, ptr %4, align 8
  store ptr %15, ptr %2, align 8
  %16 = load ptr, ptr %2, align 8
  %17 = getelementptr inbounds %struct.TokenData, ptr %16, i32 0, i32 2
  %18 = load ptr, ptr %17, align 8
  %19 = load ptr, ptr %4, align 8
  %20 = getelementptr inbounds %struct.ParseContext_, ptr %19, i32 0, i32 2
  %21 = load i32, ptr %5, align 4
  %22 = call i32 @decl_from_token(i32 noundef %21)
  %23 = getelementptr inbounds %union.SourceSpan, ptr %20, i32 0, i32 0
  %24 = load i64, ptr %23, align 8
  %25 = call ptr @decl_new_with_type(ptr noundef %18, i64 %24, i32 noundef %22)
  store ptr %25, ptr %7, align 8
  %26 = load ptr, ptr %4, align 8
  %27 = load ptr, ptr %6, align 8
  %28 = call zeroext i1 @consume_type_name(ptr noundef %26, ptr noundef %27)
  br i1 %28, label %31, label %29

29:                                               ; preds = %1
  %30 = load ptr, ptr @poisoned_decl, align 8
  store ptr %30, ptr %3, align 8
  br label %55

31:                                               ; preds = %1
  %32 = load ptr, ptr %4, align 8
  %33 = load ptr, ptr %7, align 8
  %34 = getelementptr inbounds %struct.Decl_, ptr %33, i32 0, i32 11
  %35 = getelementptr inbounds %struct.anon.3, ptr %34, i32 0, i32 0
  %36 = call zeroext i1 @parse_interface_impls(ptr noundef %32, ptr noundef %35)
  br i1 %36, label %39, label %37

37:                                               ; preds = %31
  %38 = load ptr, ptr @poisoned_decl, align 8
  store ptr %38, ptr %3, align 8
  br label %55

39:                                               ; preds = %31
  %40 = load ptr, ptr %4, align 8
  %41 = load ptr, ptr %7, align 8
  %42 = call zeroext i1 @parse_attributes_for_global(ptr noundef %40, ptr noundef %41)
  br i1 %42, label %45, label %43

43:                                               ; preds = %39
  %44 = load ptr, ptr @poisoned_decl, align 8
  store ptr %44, ptr %3, align 8
  br label %55

45:                                               ; preds = %39
  %46 = load ptr, ptr %4, align 8
  %47 = load ptr, ptr %7, align 8
  %48 = call zeroext i1 @parse_struct_body(ptr noundef %46, ptr noundef %47)
  br i1 %48, label %51, label %49

49:                                               ; preds = %45
  %50 = load ptr, ptr @poisoned_decl, align 8
  store ptr %50, ptr %3, align 8
  br label %55

51:                                               ; preds = %45
  br label %52

52:                                               ; preds = %51
  br label %53

53:                                               ; preds = %52
  %54 = load ptr, ptr %7, align 8
  store ptr %54, ptr %3, align 8
  br label %55

55:                                               ; preds = %53, %49, %43, %37, %29
  %56 = load ptr, ptr %3, align 8
  ret ptr %56
}