; Function Attrs: nounwind uwtable
define internal fastcc ptr @parse_struct_declaration(ptr noundef %0) unnamed_addr #0 {
  %2 = getelementptr inbounds i8, ptr %0, i64 40
  %3 = load i32, ptr %2, align 8
  tail call void @advance(ptr noundef %0) #8
  %4 = icmp eq i32 %3, 138
  %5 = select i1 %4, ptr @.str.141, ptr @.str.142
  %6 = getelementptr inbounds i8, ptr %0, i64 16
  %7 = load ptr, ptr %6, align 8
  %8 = getelementptr inbounds i8, ptr %0, i64 48
  switch i32 %3, label %11 [
    i32 138, label %decl_from_token.exit
    i32 142, label %9
    i32 107, label %10
  ]

9:                                                ; preds = %1
  br label %decl_from_token.exit

10:                                               ; preds = %1
  br label %decl_from_token.exit

11:                                               ; preds = %1
  tail call void (ptr, ...) @error_exit(ptr noundef nonnull @.str.85, ptr noundef nonnull @.str.86, ptr noundef nonnull @__func__.decl_from_token, ptr noundef nonnull @.str.87, i32 noundef 3165) #10
  unreachable

decl_from_token.exit:                             ; preds = %1, %9, %10
  %.0.i = phi i32 [ 25, %9 ], [ 2, %10 ], [ 23, %1 ]
  %12 = load i64, ptr %8, align 8
  %13 = tail call ptr @decl_new_with_type(ptr noundef %7, i64 %12, i32 noundef %.0.i) #8
  %14 = load i32, ptr %2, align 8
  %15 = icmp eq i32 %14, 64
  %16 = add i32 %14, -82
  %17 = icmp ult i32 %16, 63
  %or.cond.i = or i1 %15, %17
  br i1 %or.cond.i, label %consume_type_name.exit.thread.sink.split, label %18

18:                                               ; preds = %decl_from_token.exit
  %19 = icmp eq i32 %14, 65
  br i1 %19, label %consume_type_name.exit.thread.sink.split, label %consume_type_name.exit

consume_type_name.exit:                           ; preds = %18
  %20 = tail call zeroext i1 (ptr, i32, ptr, ...) @consume(ptr noundef nonnull %0, i32 noundef 66, ptr noundef nonnull @.str.81, ptr noundef nonnull %5, ptr noundef nonnull %5) #8
  br i1 %20, label %23, label %consume_type_name.exit.thread

consume_type_name.exit.thread.sink.split:         ; preds = %18, %decl_from_token.exit
  %.str.80.sink = phi ptr [ @.str.79, %decl_from_token.exit ], [ @.str.80, %18 ]
  %21 = load i64, ptr %8, align 8
  tail call void (i64, ptr, ...) @sema_error_at(i64 %21, ptr noundef nonnull %.str.80.sink, ptr noundef nonnull %5) #8
  br label %consume_type_name.exit.thread

consume_type_name.exit.thread:                    ; preds = %consume_type_name.exit.thread.sink.split, %consume_type_name.exit
  %22 = load ptr, ptr @poisoned_decl, align 8
  br label %35

23:                                               ; preds = %consume_type_name.exit
  %24 = getelementptr inbounds i8, ptr %13, i64 80
  %25 = tail call zeroext i1 @parse_interface_impls(ptr noundef nonnull %0, ptr noundef nonnull %24)
  br i1 %25, label %28, label %26

26:                                               ; preds = %23
  %27 = load ptr, ptr @poisoned_decl, align 8
  br label %35

28:                                               ; preds = %23
  %29 = tail call fastcc zeroext i1 @parse_attributes_for_global(ptr noundef nonnull %0, ptr noundef %13)
  br i1 %29, label %32, label %30

30:                                               ; preds = %28
  %31 = load ptr, ptr @poisoned_decl, align 8
  br label %35

32:                                               ; preds = %28
  %33 = tail call zeroext i1 @parse_struct_body(ptr noundef nonnull %0, ptr noundef %13)
  %34 = load ptr, ptr @poisoned_decl, align 8
  %spec.select = select i1 %33, ptr %13, ptr %34
  br label %35

35:                                               ; preds = %32, %30, %26, %consume_type_name.exit.thread
  %.0 = phi ptr [ %31, %30 ], [ %27, %26 ], [ %22, %consume_type_name.exit.thread ], [ %spec.select, %32 ]
  ret ptr %.0
}